EXPORTS
    _ZN3gcn10InputEvent7consumeEv @1
    _ZN3gcn10InputEventC1EPNS_6WidgetEbbbb @2
    _ZN3gcn10InputEventC2EPNS_6WidgetEbbbb @3
    _ZN3gcn10MouseEventC1EPNS_6WidgetEbbbbjjiii @4
    _ZN3gcn10MouseEventC2EPNS_6WidgetEbbbbjjiii @5
    _ZN3gcn10MouseInput12setTimeStampEi @6
    _ZN3gcn10MouseInput4setXEi @7
    _ZN3gcn10MouseInput4setYEi @8
    _ZN3gcn10MouseInput7setTypeEj @9
    _ZN3gcn10MouseInput9setButtonEj @10
    _ZN3gcn10MouseInputC1Ejjiii @11
    _ZN3gcn10MouseInputC1Ev @12
    _ZN3gcn10MouseInputC2Ejjiii @13
    _ZN3gcn10MouseInputC2Ev @14
    _ZN3gcn10ScrollArea10drawBorderEPNS_8GraphicsE @15
    _ZN3gcn10ScrollArea10getContentEv @16
    _ZN3gcn10ScrollArea10setContentEPNS_6WidgetE @17
    _ZN3gcn10ScrollArea11drawHMarkerEPNS_8GraphicsE @18
    _ZN3gcn10ScrollArea11drawVMarkerEPNS_8GraphicsE @19
    _ZN3gcn10ScrollArea11getWidgetAtEii @20
    _ZN3gcn10ScrollArea12drawUpButtonEPNS_8GraphicsE @21
    _ZN3gcn10ScrollArea12mouseDraggedERNS_10MouseEventE @22
    _ZN3gcn10ScrollArea12mousePressedERNS_10MouseEventE @23
    _ZN3gcn10ScrollArea12setDimensionERKNS_9RectangleE @24
    _ZN3gcn10ScrollArea13checkPoliciesEv @25
    _ZN3gcn10ScrollArea13mouseReleasedERNS_10MouseEventE @26
    _ZN3gcn10ScrollArea14drawBackgroundEPNS_8GraphicsE @27
    _ZN3gcn10ScrollArea14drawDownButtonEPNS_8GraphicsE @28
    _ZN3gcn10ScrollArea14drawLeftButtonEPNS_8GraphicsE @29
    _ZN3gcn10ScrollArea14showWidgetPartEPNS_6WidgetENS_9RectangleE @30
    _ZN3gcn10ScrollArea15drawRightButtonEPNS_8GraphicsE @31
    _ZN3gcn10ScrollArea15getChildrenAreaEv @32
    _ZN3gcn10ScrollArea15setScrollAmountEii @33
    _ZN3gcn10ScrollArea15setScrollPolicyEjj @34
    _ZN3gcn10ScrollArea17mouseWheelMovedUpERNS_10MouseEventE @35
    _ZN3gcn10ScrollArea17setScrollbarWidthEi @36
    _ZN3gcn10ScrollArea19mouseWheelMovedDownERNS_10MouseEventE @37
    _ZN3gcn10ScrollArea20getUpButtonDimensionEv @38
    _ZN3gcn10ScrollArea20getVerticalMaxScrollEv @39
    _ZN3gcn10ScrollArea22getDownButtonDimensionEv @40
    _ZN3gcn10ScrollArea22getHorizontalMaxScrollEv @41
    _ZN3gcn10ScrollArea22getLeftButtonDimensionEv @42
    _ZN3gcn10ScrollArea23getRightButtonDimensionEv @43
    _ZN3gcn10ScrollArea23getVerticalBarDimensionEv @44
    _ZN3gcn10ScrollArea23setUpButtonScrollAmountEi @45
    _ZN3gcn10ScrollArea23setVerticalScrollAmountEi @46
    _ZN3gcn10ScrollArea23setVerticalScrollPolicyEj @47
    _ZN3gcn10ScrollArea25getHorizontalBarDimensionEv @48
    _ZN3gcn10ScrollArea25setDownButtonScrollAmountEi @49
    _ZN3gcn10ScrollArea25setHorizontalScrollAmountEi @50
    _ZN3gcn10ScrollArea25setHorizontalScrollPolicyEj @51
    _ZN3gcn10ScrollArea25setLeftButtonScrollAmountEi @52
    _ZN3gcn10ScrollArea26getVerticalMarkerDimensionEv @53
    _ZN3gcn10ScrollArea26setRightButtonScrollAmountEi @54
    _ZN3gcn10ScrollArea28getHorizontalMarkerDimensionEv @55
    _ZN3gcn10ScrollArea4drawEPNS_8GraphicsE @56
    _ZN3gcn10ScrollArea5logicEv @57
    _ZN3gcn10ScrollArea8drawHBarEPNS_8GraphicsE @58
    _ZN3gcn10ScrollArea8drawVBarEPNS_8GraphicsE @59
    _ZN3gcn10ScrollArea8setWidthEi @60
    _ZN3gcn10ScrollArea9setHeightEi @61
    _ZN3gcn10ScrollAreaC1EPNS_6WidgetE @62
    _ZN3gcn10ScrollAreaC1EPNS_6WidgetEjj @63
    _ZN3gcn10ScrollAreaC1Ev @64
    _ZN3gcn10ScrollAreaC2EPNS_6WidgetE @65
    _ZN3gcn10ScrollAreaC2EPNS_6WidgetEjj @66
    _ZN3gcn10ScrollAreaC2Ev @67
    _ZN3gcn10ScrollAreaD0Ev @68
    _ZN3gcn10ScrollAreaD1Ev @69
    _ZN3gcn10ScrollAreaD2Ev @70
    _ZN3gcn10TabbedArea10adjustSizeEv @71
    _ZN3gcn10TabbedArea10drawBorderEPNS_8GraphicsE @72
    _ZN3gcn10TabbedArea10keyPressedERNS_8KeyEventE @73
    _ZN3gcn10TabbedArea12mousePressedERNS_10MouseEventE @74
    _ZN3gcn10TabbedArea12setDimensionERKNS_9RectangleE @75
    _ZN3gcn10TabbedArea13isTabSelectedEPNS_3TabE @76
    _ZN3gcn10TabbedArea14getSelectedTabEv @77
    _ZN3gcn10TabbedArea14setSelectedTabEPNS_3TabE @78
    _ZN3gcn10TabbedArea18adjustTabPositionsEv @79
    _ZN3gcn10TabbedArea18removeTabWithIndexEj @80
    _ZN3gcn10TabbedArea23setSelectedTabWithIndexEj @81
    _ZN3gcn10TabbedArea4drawEPNS_8GraphicsE @82
    _ZN3gcn10TabbedArea5deathERKNS_5EventE @83
    _ZN3gcn10TabbedArea5logicEv @84
    _ZN3gcn10TabbedArea6actionERKNS_11ActionEventE @85
    _ZN3gcn10TabbedArea6addTabEPNS_3TabEPNS_6WidgetE @86
    _ZN3gcn10TabbedArea6addTabERKSsPNS_6WidgetE @87
    _ZN3gcn10TabbedArea7setSizeEii @88
    _ZN3gcn10TabbedArea8setWidthEi @89
    _ZN3gcn10TabbedArea9removeTabEPNS_3TabE @90
    _ZN3gcn10TabbedArea9setHeightEi @91
    _ZN3gcn10TabbedAreaC1Ev @92
    _ZN3gcn10TabbedAreaC2Ev @93
    _ZN3gcn10TabbedAreaD0Ev @94
    _ZN3gcn10TabbedAreaD1Ev @95
    _ZN3gcn10TabbedAreaD2Ev @96
    _ZN3gcn11ActionEventC1EPNS_6WidgetERKSs @97
    _ZN3gcn11ActionEventC2EPNS_6WidgetERKSs @98
    _ZN3gcn11ActionEventD0Ev @99
    _ZN3gcn11ActionEventD1Ev @100
    _ZN3gcn11ActionEventD2Ev @101
    _ZN3gcn11DefaultFont10drawStringEPNS_8GraphicsERKSsii @102
    _ZN3gcn11DefaultFont16getStringIndexAtERKSsi @103
    _ZN3gcn11DefaultFont9drawGlyphEPNS_8GraphicsEhii @104
    _ZN3gcn11DefaultFontD0Ev @105
    _ZN3gcn11DefaultFontD1Ev @106
    _ZN3gcn11DefaultFontD2Ev @107
    _ZN3gcn11ImageButton4drawEPNS_8GraphicsE @108
    _ZN3gcn11ImageButtonC1EPNS_5ImageE @109
    _ZN3gcn11ImageButtonC1ERKSs @110
    _ZN3gcn11ImageButtonC2EPNS_5ImageE @111
    _ZN3gcn11ImageButtonC2ERKSs @112
    _ZN3gcn11ImageButtonD0Ev @113
    _ZN3gcn11ImageButtonD1Ev @114
    _ZN3gcn11ImageButtonD2Ev @115
    _ZN3gcn11ImageLoaderD0Ev @116
    _ZN3gcn11ImageLoaderD1Ev @117
    _ZN3gcn11ImageLoaderD2Ev @118
    _ZN3gcn11KeyListener10keyPressedERNS_8KeyEventE @119
    _ZN3gcn11KeyListener11keyReleasedERNS_8KeyEventE @120
    _ZN3gcn11KeyListenerC1Ev @121
    _ZN3gcn11KeyListenerC2Ev @122
    _ZN3gcn11KeyListenerD0Ev @123
    _ZN3gcn11KeyListenerD1Ev @124
    _ZN3gcn11KeyListenerD2Ev @125
    _ZN3gcn11RadioButton10adjustSizeEv @126
    _ZN3gcn11RadioButton10drawBorderEPNS_8GraphicsE @127
    _ZN3gcn11RadioButton10keyPressedERNS_8KeyEventE @128
    _ZN3gcn11RadioButton10setCaptionESs @129
    _ZN3gcn11RadioButton11setSelectedEb @130
    _ZN3gcn11RadioButton12mouseClickedERNS_10MouseEventE @131
    _ZN3gcn11RadioButton12mouseDraggedERNS_10MouseEventE @132
    _ZN3gcn11RadioButton4drawEPNS_8GraphicsE @133
    _ZN3gcn11RadioButton7drawBoxEPNS_8GraphicsE @134
    _ZN3gcn11RadioButton8setGroupERKSs @135
    _ZN3gcn11RadioButton9mGroupMapE @136 DATA
    _ZN3gcn11RadioButtonC1ERKSsS2_b @137
    _ZN3gcn11RadioButtonC1Ev @138
    _ZN3gcn11RadioButtonC2ERKSsS2_b @139
    _ZN3gcn11RadioButtonC2Ev @140
    _ZN3gcn11RadioButtonD0Ev @141
    _ZN3gcn11RadioButtonD1Ev @142
    _ZN3gcn11RadioButtonD2Ev @143
    _ZN3gcn12FocusHandler11tabPreviousEv @144
    _ZN3gcn12FocusHandler12requestFocusEPNS_6WidgetE @145
    _ZN3gcn12FocusHandler13focusPreviousEv @146
    _ZN3gcn12FocusHandler16getDraggedWidgetEv @147
    _ZN3gcn12FocusHandler16setDraggedWidgetEPNS_6WidgetE @148
    _ZN3gcn12FocusHandler17releaseModalFocusEPNS_6WidgetE @149
    _ZN3gcn12FocusHandler17requestModalFocusEPNS_6WidgetE @150
    _ZN3gcn12FocusHandler20getLastWidgetPressedEv @151
    _ZN3gcn12FocusHandler20setLastWidgetPressedEPNS_6WidgetE @152
    _ZN3gcn12FocusHandler22getLastWidgetWithMouseEv @153
    _ZN3gcn12FocusHandler22setLastWidgetWithMouseEPNS_6WidgetE @154
    _ZN3gcn12FocusHandler24distributeFocusLostEventERKNS_5EventE @155
    _ZN3gcn12FocusHandler26distributeFocusGainedEventERKNS_5EventE @156
    _ZN3gcn12FocusHandler27getLastWidgetWithModalFocusEv @157
    _ZN3gcn12FocusHandler27releaseModalMouseInputFocusEPNS_6WidgetE @158
    _ZN3gcn12FocusHandler27requestModalMouseInputFocusEPNS_6WidgetE @159
    _ZN3gcn12FocusHandler27setLastWidgetWithModalFocusEPNS_6WidgetE @160
    _ZN3gcn12FocusHandler37getLastWidgetWithModalMouseInputFocusEv @161
    _ZN3gcn12FocusHandler37setLastWidgetWithModalMouseInputFocusEPNS_6WidgetE @162
    _ZN3gcn12FocusHandler3addEPNS_6WidgetE @163
    _ZN3gcn12FocusHandler6removeEPNS_6WidgetE @164
    _ZN3gcn12FocusHandler7tabNextEv @165
    _ZN3gcn12FocusHandler9focusNextEv @166
    _ZN3gcn12FocusHandler9focusNoneEv @167
    _ZN3gcn12FocusHandlerC1Ev @168
    _ZN3gcn12FocusHandlerC2Ev @169
    _ZN3gcn12FocusHandlerD0Ev @170
    _ZN3gcn12FocusHandlerD1Ev @171
    _ZN3gcn12FocusHandlerD2Ev @172
    _ZN3gcn12GenericInput10_pollInputEv @173
    _ZN3gcn12GenericInput14pushKeyPressedEi @174
    _ZN3gcn12GenericInput14pushMouseMovedEii @175
    _ZN3gcn12GenericInput15dequeueKeyInputEv @176
    _ZN3gcn12GenericInput15isKeyQueueEmptyEv @177
    _ZN3gcn12GenericInput15pushKeyReleasedEi @178
    _ZN3gcn12GenericInput17dequeueMouseInputEv @179
    _ZN3gcn12GenericInput17isMouseQueueEmptyEv @180
    _ZN3gcn12GenericInput21pushMouseWheelMovedUpEii @181
    _ZN3gcn12GenericInput22pushMouseButtonPressedEiii @182
    _ZN3gcn12GenericInput23pushMouseButtonReleasedEiii @183
    _ZN3gcn12GenericInput23pushMouseWheelMovedDownEii @184
    _ZN3gcn12GenericInputC1Ev @185
    _ZN3gcn12GenericInputC2Ev @186
    _ZN3gcn13ClipRectangleC1Eiiiiii @187
    _ZN3gcn13ClipRectangleC1Ev @188
    _ZN3gcn13ClipRectangleC2Eiiiiii @189
    _ZN3gcn13ClipRectangleC2Ev @190
    _ZN3gcn13ClipRectangleaSERKNS_9RectangleE @191
    _ZN3gcn13DeathListenerD0Ev @192
    _ZN3gcn13DeathListenerD1Ev @193
    _ZN3gcn13DeathListenerD2Ev @194
    _ZN3gcn13FocusListener11focusGainedERKNS_5EventE @195
    _ZN3gcn13FocusListener9focusLostERKNS_5EventE @196
    _ZN3gcn13FocusListenerD0Ev @197
    _ZN3gcn13FocusListenerD1Ev @198
    _ZN3gcn13FocusListenerD2Ev @199
    _ZN3gcn13MouseListener10mouseMovedERNS_10MouseEventE @200
    _ZN3gcn13MouseListener11mouseExitedERNS_10MouseEventE @201
    _ZN3gcn13MouseListener12mouseClickedERNS_10MouseEventE @202
    _ZN3gcn13MouseListener12mouseDraggedERNS_10MouseEventE @203
    _ZN3gcn13MouseListener12mouseEnteredERNS_10MouseEventE @204
    _ZN3gcn13MouseListener12mousePressedERNS_10MouseEventE @205
    _ZN3gcn13MouseListener13mouseReleasedERNS_10MouseEventE @206
    _ZN3gcn13MouseListener17mouseWheelMovedUpERNS_10MouseEventE @207
    _ZN3gcn13MouseListener19mouseWheelMovedDownERNS_10MouseEventE @208
    _ZN3gcn13MouseListenerC1Ev @209
    _ZN3gcn13MouseListenerC2Ev @210
    _ZN3gcn13MouseListenerD0Ev @211
    _ZN3gcn13MouseListenerD1Ev @212
    _ZN3gcn13MouseListenerD2Ev @213
    _ZN3gcn14ActionListenerD0Ev @214
    _ZN3gcn14ActionListenerD1Ev @215
    _ZN3gcn14ActionListenerD2Ev @216
    _ZN3gcn14BasicContainer11getWidgetAtEii @217
    _ZN3gcn14BasicContainer12drawChildrenEPNS_8GraphicsE @218
    _ZN3gcn14BasicContainer12moveToBottomEPNS_6WidgetE @219
    _ZN3gcn14BasicContainer13focusPreviousEv @220
    _ZN3gcn14BasicContainer13logicChildrenEv @221
    _ZN3gcn14BasicContainer14findWidgetByIdERKSs @222
    _ZN3gcn14BasicContainer14showWidgetPartEPNS_6WidgetENS_9RectangleE @223
    _ZN3gcn14BasicContainer15getChildrenAreaEv @224
    _ZN3gcn14BasicContainer16_setFocusHandlerEPNS_12FocusHandlerE @225
    _ZN3gcn14BasicContainer23setInternalFocusHandlerEPNS_12FocusHandlerE @226
    _ZN3gcn14BasicContainer3addEPNS_6WidgetE @227
    _ZN3gcn14BasicContainer5clearEv @228
    _ZN3gcn14BasicContainer5deathERKNS_5EventE @229
    _ZN3gcn14BasicContainer5logicEv @230
    _ZN3gcn14BasicContainer6removeEPNS_6WidgetE @231
    _ZN3gcn14BasicContainer9focusNextEv @232
    _ZN3gcn14BasicContainer9moveToTopEPNS_6WidgetE @233
    _ZN3gcn14BasicContainerD0Ev @234
    _ZN3gcn14BasicContainerD1Ev @235
    _ZN3gcn14BasicContainerD2Ev @236
    _ZN3gcn14SelectionEventC1EPNS_6WidgetE @237
    _ZN3gcn14SelectionEventC2EPNS_6WidgetE @238
    _ZN3gcn14SelectionEventD0Ev @239
    _ZN3gcn14SelectionEventD1Ev @240
    _ZN3gcn14SelectionEventD2Ev @241
    _ZN3gcn14WidgetListener11widgetMovedERKNS_5EventE @242
    _ZN3gcn14WidgetListener11widgetShownERKNS_5EventE @243
    _ZN3gcn14WidgetListener12widgetHiddenERKNS_5EventE @244
    _ZN3gcn14WidgetListener13widgetResizedERKNS_5EventE @245
    _ZN3gcn14WidgetListenerD0Ev @246
    _ZN3gcn14WidgetListenerD1Ev @247
    _ZN3gcn14WidgetListenerD2Ev @248
    _ZN3gcn17SelectionListener12valueChangedERKNS_14SelectionEventE @249
    _ZN3gcn17SelectionListenerD0Ev @250
    _ZN3gcn17SelectionListenerD1Ev @251
    _ZN3gcn17SelectionListenerD2Ev @252
    _ZN3gcn3Gui11getWidgetAtEii @253
    _ZN3gcn3Gui11setGraphicsEPNS_8GraphicsE @254
    _ZN3gcn3Gui14handleKeyInputEv @255
    _ZN3gcn3Gui16handleModalFocusEv @256
    _ZN3gcn3Gui16handleMouseInputEv @257
    _ZN3gcn3Gui16handleMouseMovedERKNS_10MouseInputE @258
    _ZN3gcn3Gui16isTabbingEnabledEv @259
    _ZN3gcn3Gui17getKeyEventSourceEv @260
    _ZN3gcn3Gui17setTabbingEnabledEb @261
    _ZN3gcn3Gui18distributeKeyEventERNS_8KeyEventE @262
    _ZN3gcn3Gui18handleMousePressedERKNS_10MouseInputE @263
    _ZN3gcn3Gui19getMouseEventSourceEii @264
    _ZN3gcn3Gui19handleMouseReleasedERKNS_10MouseInputE @265
    _ZN3gcn3Gui20addGlobalKeyListenerEPNS_11KeyListenerE @266
    _ZN3gcn3Gui20distributeMouseEventEPNS_6WidgetEiiiibb @267
    _ZN3gcn3Gui22handleModalFocusGainedEv @268
    _ZN3gcn3Gui23handleMouseWheelMovedUpERKNS_10MouseInputE @269
    _ZN3gcn3Gui23removeGlobalKeyListenerEPNS_11KeyListenerE @270
    _ZN3gcn3Gui24handleModalFocusReleasedEv @271
    _ZN3gcn3Gui25handleMouseWheelMovedDownERKNS_10MouseInputE @272
    _ZN3gcn3Gui26handleModalMouseInputFocusEv @273
    _ZN3gcn3Gui38distributeKeyEventToGlobalKeyListenersERNS_8KeyEventE @274
    _ZN3gcn3Gui4drawEv @275
    _ZN3gcn3Gui5logicEv @276
    _ZN3gcn3Gui6setTopEPNS_6WidgetE @277
    _ZN3gcn3Gui8setInputEPNS_5InputE @278
    _ZN3gcn3Gui9focusNoneEv @279
    _ZN3gcn3GuiC1Ev @280
    _ZN3gcn3GuiC2Ev @281
    _ZN3gcn3GuiD0Ev @282
    _ZN3gcn3GuiD1Ev @283
    _ZN3gcn3GuiD2Ev @284
    _ZN3gcn3KeyC1Ei @285
    _ZN3gcn3KeyC2Ei @286
    _ZN3gcn3Tab10adjustSizeEv @287
    _ZN3gcn3Tab10drawBorderEPNS_8GraphicsE @288
    _ZN3gcn3Tab10setCaptionERKSs @289
    _ZN3gcn3Tab11mouseExitedERNS_10MouseEventE @290
    _ZN3gcn3Tab12mouseEnteredERNS_10MouseEventE @291
    _ZN3gcn3Tab13getTabbedAreaEv @292
    _ZN3gcn3Tab13setTabbedAreaEPNS_10TabbedAreaE @293
    _ZN3gcn3Tab4drawEPNS_8GraphicsE @294
    _ZN3gcn3TabC1Ev @295
    _ZN3gcn3TabC2Ev @296
    _ZN3gcn3TabD0Ev @297
    _ZN3gcn3TabD1Ev @298
    _ZN3gcn3TabD2Ev @299
    _ZN3gcn4Font16getStringIndexAtERKSsi @300
    _ZN3gcn4FontD0Ev @301
    _ZN3gcn4FontD1Ev @302
    _ZN3gcn4FontD2Ev @303
    _ZN3gcn4Icon10drawBorderEPNS_8GraphicsE @304
    _ZN3gcn4Icon4drawEPNS_8GraphicsE @305
    _ZN3gcn4IconC1EPNS_5ImageE @306
    _ZN3gcn4IconC1ERKSs @307
    _ZN3gcn4IconC2EPNS_5ImageE @308
    _ZN3gcn4IconC2ERKSs @309
    _ZN3gcn4IconD0Ev @310
    _ZN3gcn4IconD1Ev @311
    _ZN3gcn4IconD2Ev @312
    _ZN3gcn5ColorC1Ei @313
    _ZN3gcn5ColorC1Eiiii @314
    _ZN3gcn5ColorC1Ev @315
    _ZN3gcn5ColorC2Ei @316
    _ZN3gcn5ColorC2Eiiii @317
    _ZN3gcn5ColorC2Ev @318
    _ZN3gcn5EventC1EPNS_6WidgetE @319
    _ZN3gcn5EventC2EPNS_6WidgetE @320
    _ZN3gcn5EventD0Ev @321
    _ZN3gcn5EventD1Ev @322
    _ZN3gcn5EventD2Ev @323
    _ZN3gcn5Image12mImageLoaderE @324 DATA
    _ZN3gcn5Image14getImageLoaderEv @325
    _ZN3gcn5Image14setImageLoaderEPNS_11ImageLoaderE @326
    _ZN3gcn5Image4loadERKSsb @327
    _ZN3gcn5ImageC1Ev @328
    _ZN3gcn5ImageC2Ev @329
    _ZN3gcn5ImageD0Ev @330
    _ZN3gcn5ImageD1Ev @331
    _ZN3gcn5ImageD2Ev @332
    _ZN3gcn5InputD0Ev @333
    _ZN3gcn5InputD1Ev @334
    _ZN3gcn5InputD2Ev @335
    _ZN3gcn5Label10adjustSizeEv @336
    _ZN3gcn5Label10drawBorderEPNS_8GraphicsE @337
    _ZN3gcn5Label10setCaptionERKSs @338
    _ZN3gcn5Label12setAlignmentEj @339
    _ZN3gcn5Label4drawEPNS_8GraphicsE @340
    _ZN3gcn5LabelC1ERKSs @341
    _ZN3gcn5LabelC1Ev @342
    _ZN3gcn5LabelC2ERKSs @343
    _ZN3gcn5LabelC2Ev @344
    _ZN3gcn6Button10adjustSizeEv @345
    _ZN3gcn6Button10drawBorderEPNS_8GraphicsE @346
    _ZN3gcn6Button10keyPressedERNS_8KeyEventE @347
    _ZN3gcn6Button10setCaptionERKSs @348
    _ZN3gcn6Button10setSpacingEj @349
    _ZN3gcn6Button11keyReleasedERNS_8KeyEventE @350
    _ZN3gcn6Button11mouseExitedERNS_10MouseEventE @351
    _ZN3gcn6Button12mouseDraggedERNS_10MouseEventE @352
    _ZN3gcn6Button12mouseEnteredERNS_10MouseEventE @353
    _ZN3gcn6Button12mousePressedERNS_10MouseEventE @354
    _ZN3gcn6Button12setAlignmentEj @355
    _ZN3gcn6Button13mouseReleasedERNS_10MouseEventE @356
    _ZN3gcn6Button4drawEPNS_8GraphicsE @357
    _ZN3gcn6Button9focusLostERKNS_5EventE @358
    _ZN3gcn6ButtonC1ERKSs @359
    _ZN3gcn6ButtonC1Ev @360
    _ZN3gcn6ButtonC2ERKSs @361
    _ZN3gcn6ButtonC2Ev @362
    _ZN3gcn6Slider10drawBorderEPNS_8GraphicsE @363
    _ZN3gcn6Slider10drawMarkerEPNS_8GraphicsE @364
    _ZN3gcn6Slider10keyPressedERNS_8KeyEventE @365
    _ZN3gcn6Slider11setScaleEndEd @366
    _ZN3gcn6Slider12mouseDraggedERNS_10MouseEventE @367
    _ZN3gcn6Slider12mousePressedERNS_10MouseEventE @368
    _ZN3gcn6Slider13setScaleStartEd @369
    _ZN3gcn6Slider13setStepLengthEd @370
    _ZN3gcn6Slider14setOrientationEj @371
    _ZN3gcn6Slider15setMarkerLengthEi @372
    _ZN3gcn6Slider17mouseWheelMovedUpERNS_10MouseEventE @373
    _ZN3gcn6Slider19mouseWheelMovedDownERNS_10MouseEventE @374
    _ZN3gcn6Slider4drawEPNS_8GraphicsE @375
    _ZN3gcn6Slider8setScaleEdd @376
    _ZN3gcn6Slider8setValueEd @377
    _ZN3gcn6SliderC1Ed @378
    _ZN3gcn6SliderC1Edd @379
    _ZN3gcn6SliderC2Ed @380
    _ZN3gcn6SliderC2Edd @381
    _ZN3gcn6SliderD0Ev @382
    _ZN3gcn6SliderD1Ev @383
    _ZN3gcn6SliderD2Ev @384
    _ZN3gcn6Widget10_setParentEPS0_ @385
    _ZN3gcn6Widget10drawBorderEPNS_8GraphicsE @386
    _ZN3gcn6Widget10setEnabledEb @387
    _ZN3gcn6Widget10setVisibleEb @388
    _ZN3gcn6Widget11fontChangedEv @389
    _ZN3gcn6Widget11getWidgetAtEii @390
    _ZN3gcn6Widget11mGlobalFontE @391 DATA
    _ZN3gcn6Widget11setPositionEii @392
    _ZN3gcn6Widget12mDefaultFontE @393 DATA
    _ZN3gcn6Widget12moveToBottomEPS0_ @394
    _ZN3gcn6Widget12requestFocusEv @395
    _ZN3gcn6Widget12setBaseColorERKNS_5ColorE @396
    _ZN3gcn6Widget12setDimensionERKNS_9RectangleE @397
    _ZN3gcn6Widget12setFocusableEb @398
    _ZN3gcn6Widget12widgetExistsEPKS0_ @399
    _ZN3gcn6Widget13focusPreviousEv @400
    _ZN3gcn6Widget13setBorderSizeEj @401
    _ZN3gcn6Widget13setGlobalFontEPNS_4FontE @402
    _ZN3gcn6Widget14addKeyListenerEPNS_11KeyListenerE @403
    _ZN3gcn6Widget14generateActionEv @404
    _ZN3gcn6Widget14showWidgetPartEPS0_NS_9RectangleE @405
    _ZN3gcn6Widget15getChildrenAreaEv @406
    _ZN3gcn6Widget15setTabInEnabledEb @407
    _ZN3gcn6Widget16_getFocusHandlerEv @408
    _ZN3gcn6Widget16_getKeyListenersEv @409
    _ZN3gcn6Widget16_setFocusHandlerEPNS_12FocusHandlerE @410
    _ZN3gcn6Widget16addDeathListenerEPNS_13DeathListenerE @411
    _ZN3gcn6Widget16addFocusListenerEPNS_13FocusListenerE @412
    _ZN3gcn6Widget16addMouseListenerEPNS_13MouseListenerE @413
    _ZN3gcn6Widget16requestMoveToTopEv @414
    _ZN3gcn6Widget16setActionEventIdERKSs @415
    _ZN3gcn6Widget16setTabOutEnabledEb @416
    _ZN3gcn6Widget17addActionListenerEPNS_14ActionListenerE @417
    _ZN3gcn6Widget17addWidgetListenerEPNS_14WidgetListenerE @418
    _ZN3gcn6Widget17releaseModalFocusEv @419
    _ZN3gcn6Widget17removeKeyListenerEPNS_11KeyListenerE @420
    _ZN3gcn6Widget17requestModalFocusEv @421
    _ZN3gcn6Widget17setSelectionColorERKNS_5ColorE @422
    _ZN3gcn6Widget18_getFocusListenersEv @423
    _ZN3gcn6Widget18_getMouseListenersEv @424
    _ZN3gcn6Widget18setBackgroundColorERKNS_5ColorE @425
    _ZN3gcn6Widget18setForegroundColorERKNS_5ColorE @426
    _ZN3gcn6Widget19removeDeathListenerEPNS_13DeathListenerE @427
    _ZN3gcn6Widget19removeFocusListenerEPNS_13FocusListenerE @428
    _ZN3gcn6Widget19removeMouseListenerEPNS_13MouseListenerE @429
    _ZN3gcn6Widget19requestMoveToBottomEv @430
    _ZN3gcn6Widget20distributeMovedEventEv @431
    _ZN3gcn6Widget20distributeShownEventEv @432
    _ZN3gcn6Widget20removeActionListenerEPNS_14ActionListenerE @433
    _ZN3gcn6Widget20removeWidgetListenerEPNS_14WidgetListenerE @434
    _ZN3gcn6Widget21distributeHiddenEventEv @435
    _ZN3gcn6Widget22distributeResizedEventEv @436
    _ZN3gcn6Widget23setInternalFocusHandlerEPNS_12FocusHandlerE @437
    _ZN3gcn6Widget24_getInternalFocusHandlerEv @438
    _ZN3gcn6Widget27releaseModalMouseInputFocusEv @439
    _ZN3gcn6Widget27requestModalMouseInputFocusEv @440
    _ZN3gcn6Widget4setXEi @441
    _ZN3gcn6Widget4setYEi @442
    _ZN3gcn6Widget5getIdEv @443
    _ZN3gcn6Widget5logicEv @444
    _ZN3gcn6Widget5setIdERKSs @445
    _ZN3gcn6Widget7setFontEPNS_4FontE @446
    _ZN3gcn6Widget7setSizeEii @447
    _ZN3gcn6Widget8mWidgetsE @448 DATA
    _ZN3gcn6Widget8setWidthEi @449
    _ZN3gcn6Widget9focusNextEv @450
    _ZN3gcn6Widget9moveToTopEPS0_ @451
    _ZN3gcn6Widget9setHeightEi @452
    _ZN3gcn6WidgetC1Ev @453
    _ZN3gcn6WidgetC2Ev @454
    _ZN3gcn6WidgetD0Ev @455
    _ZN3gcn6WidgetD1Ev @456
    _ZN3gcn6WidgetD2Ev @457
    _ZN3gcn6Window10drawBorderEPNS_8GraphicsE @458
    _ZN3gcn6Window10setCaptionERKSs @459
    _ZN3gcn6Window10setMovableEb @460
    _ZN3gcn6Window10setPaddingEj @461
    _ZN3gcn6Window12mouseDraggedERNS_10MouseEventE @462
    _ZN3gcn6Window12mousePressedERNS_10MouseEventE @463
    _ZN3gcn6Window12setAlignmentEj @464
    _ZN3gcn6Window13mouseReleasedERNS_10MouseEventE @465
    _ZN3gcn6Window15getChildrenAreaEv @466
    _ZN3gcn6Window15resizeToContentEv @467
    _ZN3gcn6Window17getTitleBarHeightEv @468
    _ZN3gcn6Window17setTitleBarHeightEj @469
    _ZN3gcn6Window4drawEPNS_8GraphicsE @470
    _ZN3gcn6Window8isOpaqueEv @471
    _ZN3gcn6Window9setOpaqueEb @472
    _ZN3gcn6WindowC1ERKSs @473
    _ZN3gcn6WindowC1Ev @474
    _ZN3gcn6WindowC2ERKSs @475
    _ZN3gcn6WindowC2Ev @476
    _ZN3gcn6WindowD0Ev @477
    _ZN3gcn6WindowD1Ev @478
    _ZN3gcn6WindowD2Ev @479
    _ZN3gcn7ListBox10adjustSizeEv @480
    _ZN3gcn7ListBox10drawBorderEPNS_8GraphicsE @481
    _ZN3gcn7ListBox10keyPressedERNS_8KeyEventE @482
    _ZN3gcn7ListBox11setSelectedEi @483
    _ZN3gcn7ListBox12getListModelEv @484
    _ZN3gcn7ListBox12mouseDraggedERNS_10MouseEventE @485
    _ZN3gcn7ListBox12mousePressedERNS_10MouseEventE @486
    _ZN3gcn7ListBox12setListModelEPNS_9ListModelE @487
    _ZN3gcn7ListBox17mouseWheelMovedUpERNS_10MouseEventE @488
    _ZN3gcn7ListBox18setWrappingEnabledEb @489
    _ZN3gcn7ListBox19mouseWheelMovedDownERNS_10MouseEventE @490
    _ZN3gcn7ListBox20addSelectionListenerEPNS_17SelectionListenerE @491
    _ZN3gcn7ListBox23removeSelectionListenerEPNS_17SelectionListenerE @492
    _ZN3gcn7ListBox27distributeValueChangedEventEv @493
    _ZN3gcn7ListBox4drawEPNS_8GraphicsE @494
    _ZN3gcn7ListBox5logicEv @495
    _ZN3gcn7ListBoxC1EPNS_9ListModelE @496
    _ZN3gcn7ListBoxC1Ev @497
    _ZN3gcn7ListBoxC2EPNS_9ListModelE @498
    _ZN3gcn7ListBoxC2Ev @499
    _ZN3gcn7ListBoxD0Ev @500
    _ZN3gcn7ListBoxD1Ev @501
    _ZN3gcn7ListBoxD2Ev @502
    _ZN3gcn7TextBox10adjustSizeEv @503
    _ZN3gcn7TextBox10drawBorderEPNS_8GraphicsE @504
    _ZN3gcn7TextBox10keyPressedERNS_8KeyEventE @505
    _ZN3gcn7TextBox10setTextRowEiRKSs @506
    _ZN3gcn7TextBox11fontChangedEv @507
    _ZN3gcn7TextBox11setCaretRowEi @508
    _ZN3gcn7TextBox11setEditableEb @509
    _ZN3gcn7TextBox12mouseDraggedERNS_10MouseEventE @510
    _ZN3gcn7TextBox12mousePressedERNS_10MouseEventE @511
    _ZN3gcn7TextBox13scrollToCaretEv @512
    _ZN3gcn7TextBox14setCaretColumnEi @513
    _ZN3gcn7TextBox16setCaretPositionEj @514
    _ZN3gcn7TextBox17setCaretRowColumnEii @515
    _ZN3gcn7TextBox4drawEPNS_8GraphicsE @516
    _ZN3gcn7TextBox6addRowESs @517
    _ZN3gcn7TextBox7setTextERKSs @518
    _ZN3gcn7TextBox8isOpaqueEv @519
    _ZN3gcn7TextBox9drawCaretEPNS_8GraphicsEii @520
    _ZN3gcn7TextBox9setOpaqueEb @521
    _ZN3gcn7TextBoxC1ERKSs @522
    _ZN3gcn7TextBoxC1Ev @523
    _ZN3gcn7TextBoxC2ERKSs @524
    _ZN3gcn7TextBoxC2Ev @525
    _ZN3gcn8CheckBox10adjustSizeEv @526
    _ZN3gcn8CheckBox10drawBorderEPNS_8GraphicsE @527
    _ZN3gcn8CheckBox10keyPressedERNS_8KeyEventE @528
    _ZN3gcn8CheckBox10setCaptionERKSs @529
    _ZN3gcn8CheckBox11setSelectedEb @530
    _ZN3gcn8CheckBox12mouseClickedERNS_10MouseEventE @531
    _ZN3gcn8CheckBox12mouseDraggedERNS_10MouseEventE @532
    _ZN3gcn8CheckBox14toggleSelectedEv @533
    _ZN3gcn8CheckBox4drawEPNS_8GraphicsE @534
    _ZN3gcn8CheckBox7drawBoxEPNS_8GraphicsE @535
    _ZN3gcn8CheckBoxC1ERKSsb @536
    _ZN3gcn8CheckBoxC1Ev @537
    _ZN3gcn8CheckBoxC2ERKSsb @538
    _ZN3gcn8CheckBoxC2Ev @539
    _ZN3gcn8CheckBoxD0Ev @540
    _ZN3gcn8CheckBoxD1Ev @541
    _ZN3gcn8CheckBoxD2Ev @542
    _ZN3gcn8DropDown10drawBorderEPNS_8GraphicsE @543
    _ZN3gcn8DropDown10drawButtonEPNS_8GraphicsE @544
    _ZN3gcn8DropDown10keyPressedERNS_8KeyEventE @545
    _ZN3gcn8DropDown11setSelectedEi @546
    _ZN3gcn8DropDown12adjustHeightEv @547
    _ZN3gcn8DropDown12getListModelEv @548
    _ZN3gcn8DropDown12mouseDraggedERNS_10MouseEventE @549
    _ZN3gcn8DropDown12mousePressedERNS_10MouseEventE @550
    _ZN3gcn8DropDown12setBaseColorERKNS_5ColorE @551
    _ZN3gcn8DropDown12setListModelEPNS_9ListModelE @552
    _ZN3gcn8DropDown12valueChangedERKNS_14SelectionEventE @553
    _ZN3gcn8DropDown13mouseReleasedERNS_10MouseEventE @554
    _ZN3gcn8DropDown15getChildrenAreaEv @555
    _ZN3gcn8DropDown17mouseWheelMovedUpERNS_10MouseEventE @556
    _ZN3gcn8DropDown17setSelectionColorERKNS_5ColorE @557
    _ZN3gcn8DropDown18setBackgroundColorERKNS_5ColorE @558
    _ZN3gcn8DropDown18setForegroundColorERKNS_5ColorE @559
    _ZN3gcn8DropDown19mouseWheelMovedDownERNS_10MouseEventE @560
    _ZN3gcn8DropDown20addSelectionListenerEPNS_17SelectionListenerE @561
    _ZN3gcn8DropDown23removeSelectionListenerEPNS_17SelectionListenerE @562
    _ZN3gcn8DropDown27distributeValueChangedEventEv @563
    _ZN3gcn8DropDown4drawEPNS_8GraphicsE @564
    _ZN3gcn8DropDown5deathERKNS_5EventE @565
    _ZN3gcn8DropDown6actionERKNS_11ActionEventE @566
    _ZN3gcn8DropDown6foldUpEv @567
    _ZN3gcn8DropDown7setFontEPNS_4FontE @568
    _ZN3gcn8DropDown8dropDownEv @569
    _ZN3gcn8DropDown9focusLostERKNS_5EventE @570
    _ZN3gcn8DropDownC1EPNS_9ListModelEPNS_10ScrollAreaEPNS_7ListBoxE @571
    _ZN3gcn8DropDownC2EPNS_9ListModelEPNS_10ScrollAreaEPNS_7ListBoxE @572
    _ZN3gcn8DropDownD0Ev @573
    _ZN3gcn8DropDownD1Ev @574
    _ZN3gcn8DropDownD2Ev @575
    _ZN3gcn8Graphics10_beginDrawEv @576
    _ZN3gcn8Graphics11popClipAreaEv @577
    _ZN3gcn8Graphics12pushClipAreaENS_9RectangleE @578
    _ZN3gcn8Graphics18getCurrentClipAreaEv @579
    _ZN3gcn8Graphics7setFontEPNS_4FontE @580
    _ZN3gcn8Graphics8_endDrawEv @581
    _ZN3gcn8Graphics8drawTextERKSsiij @582
    _ZN3gcn8Graphics9drawImageEPKNS_5ImageEii @583
    _ZN3gcn8GraphicsC1Ev @584
    _ZN3gcn8GraphicsC2Ev @585
    _ZN3gcn8GraphicsD0Ev @586
    _ZN3gcn8GraphicsD1Ev @587
    _ZN3gcn8GraphicsD2Ev @588
    _ZN3gcn8KeyEventC1EPNS_6WidgetEbbbbjbRKNS_3KeyE @589
    _ZN3gcn8KeyEventC2EPNS_6WidgetEbbbbjbRKNS_3KeyE @590
    _ZN3gcn8KeyEventD0Ev @591
    _ZN3gcn8KeyEventD1Ev @592
    _ZN3gcn8KeyEventD2Ev @593
    _ZN3gcn8KeyInput13setAltPressedEb @594
    _ZN3gcn8KeyInput13setNumericPadEb @595
    _ZN3gcn8KeyInput14setMetaPressedEb @596
    _ZN3gcn8KeyInput15setShiftPressedEb @597
    _ZN3gcn8KeyInput17setControlPressedEb @598
    _ZN3gcn8KeyInput6setKeyERKNS_3KeyE @599
    _ZN3gcn8KeyInput7setTypeEi @600
    _ZN3gcn8KeyInputC1ERKNS_3KeyEi @601
    _ZN3gcn8KeyInputC1Ev @602
    _ZN3gcn8KeyInputC2ERKNS_3KeyEi @603
    _ZN3gcn8KeyInputC2Ev @604
    _ZN3gcn9Container10drawBorderEPNS_8GraphicsE @605
    _ZN3gcn9Container14findWidgetByIdERKSs @606
    _ZN3gcn9Container3addEPNS_6WidgetE @607
    _ZN3gcn9Container3addEPNS_6WidgetEii @608
    _ZN3gcn9Container4drawEPNS_8GraphicsE @609
    _ZN3gcn9Container5clearEv @610
    _ZN3gcn9Container6removeEPNS_6WidgetE @611
    _ZN3gcn9Container9setOpaqueEb @612
    _ZN3gcn9ContainerC1Ev @613
    _ZN3gcn9ContainerC2Ev @614
    _ZN3gcn9ContainerD0Ev @615
    _ZN3gcn9ContainerD1Ev @616
    _ZN3gcn9ContainerD2Ev @617
    _ZN3gcn9ExceptionC1ERKSs @618
    _ZN3gcn9ExceptionC1ERKSsS2_S2_i @619
    _ZN3gcn9ExceptionC1Ev @620
    _ZN3gcn9ExceptionC2ERKSs @621
    _ZN3gcn9ExceptionC2ERKSsS2_S2_i @622
    _ZN3gcn9ExceptionC2Ev @623
    _ZN3gcn9ImageFont10drawStringEPNS_8GraphicsERKSsii @624
    _ZN3gcn9ImageFont13getRowSpacingEv @625
    _ZN3gcn9ImageFont13setRowSpacingEi @626
    _ZN3gcn9ImageFont15getGlyphSpacingEv @627
    _ZN3gcn9ImageFont15setGlyphSpacingEi @628
    _ZN3gcn9ImageFont16getStringIndexAtERKSsi @629
    _ZN3gcn9ImageFont8addGlyphEhRiS1_RKNS_5ColorE @630
    _ZN3gcn9ImageFont9drawGlyphEPNS_8GraphicsEhii @631
    _ZN3gcn9ImageFontC1ERKSsS2_ @632
    _ZN3gcn9ImageFontC1ERKSshh @633
    _ZN3gcn9ImageFontC2ERKSsS2_ @634
    _ZN3gcn9ImageFontC2ERKSshh @635
    _ZN3gcn9ImageFontD0Ev @636
    _ZN3gcn9ImageFontD1Ev @637
    _ZN3gcn9ImageFontD2Ev @638
    _ZN3gcn9ListModelD0Ev @639
    _ZN3gcn9ListModelD1Ev @640
    _ZN3gcn9ListModelD2Ev @641
    _ZN3gcn9Rectangle6setAllEiiii @642
    _ZN3gcn9Rectangle9intersectERKS0_ @643
    _ZN3gcn9RectangleC1Eiiii @644
    _ZN3gcn9RectangleC1Ev @645
    _ZN3gcn9RectangleC2Eiiii @646
    _ZN3gcn9RectangleC2Ev @647
    _ZN3gcn9TextField10adjustSizeEv @648
    _ZN3gcn9TextField10drawBorderEPNS_8GraphicsE @649
    _ZN3gcn9TextField10keyPressedERNS_8KeyEventE @650
    _ZN3gcn9TextField11fontChangedEv @651
    _ZN3gcn9TextField12adjustHeightEv @652
    _ZN3gcn9TextField12mouseDraggedERNS_10MouseEventE @653
    _ZN3gcn9TextField12mousePressedERNS_10MouseEventE @654
    _ZN3gcn9TextField16setCaretPositionEj @655
    _ZN3gcn9TextField4drawEPNS_8GraphicsE @656
    _ZN3gcn9TextField7setTextERKSs @657
    _ZN3gcn9TextField9drawCaretEPNS_8GraphicsEi @658
    _ZN3gcn9TextField9fixScrollEv @659
    _ZN3gcn9TextFieldC1ERKSs @660
    _ZN3gcn9TextFieldC1Ev @661
    _ZN3gcn9TextFieldC2ERKSs @662
    _ZN3gcn9TextFieldC2Ev @663
    _ZNK3gcn10InputEvent10isConsumedEv @664
    _ZNK3gcn10InputEvent12isAltPressedEv @665
    _ZNK3gcn10InputEvent13isMetaPressedEv @666
    _ZNK3gcn10InputEvent14isShiftPressedEv @667
    _ZNK3gcn10InputEvent16isControlPressedEv @668
    _ZNK3gcn10MouseEvent13getClickCountEv @669
    _ZNK3gcn10MouseEvent4getXEv @670
    _ZNK3gcn10MouseEvent4getYEv @671
    _ZNK3gcn10MouseEvent7getTypeEv @672
    _ZNK3gcn10MouseEvent9getButtonEv @673
    _ZNK3gcn10MouseInput12getTimeStampEv @674
    _ZNK3gcn10MouseInput4getXEv @675
    _ZNK3gcn10MouseInput4getYEv @676
    _ZNK3gcn10MouseInput7getTypeEv @677
    _ZNK3gcn10MouseInput9getButtonEv @678
    _ZNK3gcn10ScrollArea17getScrollbarWidthEv @679
    _ZNK3gcn10ScrollArea23getUpButtonScrollAmountEv @680
    _ZNK3gcn10ScrollArea23getVerticalScrollAmountEv @681
    _ZNK3gcn10ScrollArea23getVerticalScrollPolicyEv @682
    _ZNK3gcn10ScrollArea25getDownButtonScrollAmountEv @683
    _ZNK3gcn10ScrollArea25getHorizontalScrollAmountEv @684
    _ZNK3gcn10ScrollArea25getHorizontalScrollPolicyEv @685
    _ZNK3gcn10ScrollArea25getLeftButtonScrollAmountEv @686
    _ZNK3gcn10ScrollArea26getRightButtonScrollAmountEv @687
    _ZNK3gcn10TabbedArea13isTabSelectedEj @688
    _ZNK3gcn10TabbedArea19getSelectedTabIndexEv @689
    _ZNK3gcn11ActionEvent5getIdEv @690
    _ZNK3gcn11DefaultFont8getWidthERKSs @691
    _ZNK3gcn11DefaultFont9getHeightEv @692
    _ZNK3gcn11RadioButton10getCaptionEv @693
    _ZNK3gcn11RadioButton10isSelectedEv @694
    _ZNK3gcn11RadioButton8getGroupEv @695
    _ZNK3gcn12FocusHandler10getFocusedEv @696
    _ZNK3gcn12FocusHandler15getModalFocusedEv @697
    _ZNK3gcn12FocusHandler25getModalMouseInputFocusedEv @698
    _ZNK3gcn12FocusHandler9isFocusedEPKNS_6WidgetE @699
    _ZNK3gcn3Gui11getGraphicsEv @700
    _ZNK3gcn3Gui6getTopEv @701
    _ZNK3gcn3Gui8getInputEv @702
    _ZNK3gcn3Key11isCharacterEv @703
    _ZNK3gcn3Key8getValueEv @704
    _ZNK3gcn3Key8isLetterEv @705
    _ZNK3gcn3Key8isNumberEv @706
    _ZNK3gcn3Tab10getCaptionEv @707
    _ZNK3gcn5ColoreqERKS0_ @708
    _ZNK3gcn5ColormiERKS0_ @709
    _ZNK3gcn5ColormlEf @710
    _ZNK3gcn5ColorneERKS0_ @711
    _ZNK3gcn5ColorplERKS0_ @712
    _ZNK3gcn5Event9getSourceEv @713
    _ZNK3gcn5Label10getCaptionEv @714
    _ZNK3gcn5Label12getAlignmentEv @715
    _ZNK3gcn6Button10getCaptionEv @716
    _ZNK3gcn6Button10getSpacingEv @717
    _ZNK3gcn6Button12getAlignmentEv @718
    _ZNK3gcn6Button9isPressedEv @719
    _ZNK3gcn6Slider11getScaleEndEv @720
    _ZNK3gcn6Slider13getScaleStartEv @721
    _ZNK3gcn6Slider13getStepLengthEv @722
    _ZNK3gcn6Slider14getOrientationEv @723
    _ZNK3gcn6Slider15getMarkerLengthEv @724
    _ZNK3gcn6Slider17getMarkerPositionEv @725
    _ZNK3gcn6Slider21markerPositionToValueEi @726
    _ZNK3gcn6Slider21valueToMarkerPositionEd @727
    _ZNK3gcn6Slider8getValueEv @728
    _ZNK3gcn6Widget11isFocusableEv @729
    _ZNK3gcn6Widget12getBaseColorEv @730
    _ZNK3gcn6Widget12getDimensionEv @731
    _ZNK3gcn6Widget13getBorderSizeEv @732
    _ZNK3gcn6Widget13hasModalFocusEv @733
    _ZNK3gcn6Widget14isTabInEnabledEv @734
    _ZNK3gcn6Widget15isTabOutEnabledEv @735
    _ZNK3gcn6Widget16getActionEventIdEv @736
    _ZNK3gcn6Widget17getSelectionColorEv @737
    _ZNK3gcn6Widget18getBackgroundColorEv @738
    _ZNK3gcn6Widget18getForegroundColorEv @739
    _ZNK3gcn6Widget19getAbsolutePositionERiS1_ @740
    _ZNK3gcn6Widget23hasModalMouseInputFocusEv @741
    _ZNK3gcn6Widget4getXEv @742
    _ZNK3gcn6Widget4getYEv @743
    _ZNK3gcn6Widget7getFontEv @744
    _ZNK3gcn6Widget8getWidthEv @745
    _ZNK3gcn6Widget9getHeightEv @746
    _ZNK3gcn6Widget9getParentEv @747
    _ZNK3gcn6Widget9isEnabledEv @748
    _ZNK3gcn6Widget9isFocusedEv @749
    _ZNK3gcn6Widget9isVisibleEv @750
    _ZNK3gcn6Window10getCaptionEv @751
    _ZNK3gcn6Window10getPaddingEv @752
    _ZNK3gcn6Window12getAlignmentEv @753
    _ZNK3gcn6Window9isMovableEv @754
    _ZNK3gcn7ListBox11getSelectedEv @755
    _ZNK3gcn7ListBox17isWrappingEnabledEv @756
    _ZNK3gcn7TextBox10getTextRowEi @757
    _ZNK3gcn7TextBox10isEditableEv @758
    _ZNK3gcn7TextBox11getCaretRowEv @759
    _ZNK3gcn7TextBox14getCaretColumnEv @760
    _ZNK3gcn7TextBox15getNumberOfRowsEv @761
    _ZNK3gcn7TextBox16getCaretPositionEv @762
    _ZNK3gcn7TextBox7getTextEv @763
    _ZNK3gcn8CheckBox10getCaptionEv @764
    _ZNK3gcn8CheckBox10isSelectedEv @765
    _ZNK3gcn8DropDown11getSelectedEv @766
    _ZNK3gcn8KeyEvent12isNumericPadEv @767
    _ZNK3gcn8KeyEvent6getKeyEv @768
    _ZNK3gcn8KeyEvent7getTypeEv @769
    _ZNK3gcn8KeyInput12isAltPressedEv @770
    _ZNK3gcn8KeyInput12isNumericPadEv @771
    _ZNK3gcn8KeyInput13isMetaPressedEv @772
    _ZNK3gcn8KeyInput14isShiftPressedEv @773
    _ZNK3gcn8KeyInput16isControlPressedEv @774
    _ZNK3gcn8KeyInput6getKeyEv @775
    _ZNK3gcn8KeyInput7getTypeEv @776
    _ZNK3gcn9Container8isOpaqueEv @777
    _ZNK3gcn9Exception10getMessageEv @778
    _ZNK3gcn9Exception11getFilenameEv @779
    _ZNK3gcn9Exception11getFunctionEv @780
    _ZNK3gcn9Exception7getLineEv @781
    _ZNK3gcn9ImageFont8getWidthERKSs @782
    _ZNK3gcn9ImageFont8getWidthEh @783
    _ZNK3gcn9ImageFont9getHeightEv @784
    _ZNK3gcn9Rectangle13isPointInRectEii @785
    _ZNK3gcn9TextField16getCaretPositionEv @786
    _ZNK3gcn9TextField7getTextEv @787
    _ZTIN3gcn10InputEventE @788 DATA
    _ZTIN3gcn10MouseEventE @789 DATA
    _ZTIN3gcn10ScrollAreaE @790 DATA
    _ZTIN3gcn10TabbedAreaE @791 DATA
    _ZTIN3gcn11ActionEventE @792 DATA
    _ZTIN3gcn11DefaultFontE @793 DATA
    _ZTIN3gcn11ImageButtonE @794 DATA
    _ZTIN3gcn11ImageLoaderE @795 DATA
    _ZTIN3gcn11KeyListenerE @796 DATA
    _ZTIN3gcn11RadioButtonE @797 DATA
    _ZTIN3gcn12FocusHandlerE @798 DATA
    _ZTIN3gcn12GenericInputE @799 DATA
    _ZTIN3gcn13DeathListenerE @800 DATA
    _ZTIN3gcn13FocusListenerE @801 DATA
    _ZTIN3gcn13MouseListenerE @802 DATA
    _ZTIN3gcn14ActionListenerE @803 DATA
    _ZTIN3gcn14BasicContainerE @804 DATA
    _ZTIN3gcn14SelectionEventE @805 DATA
    _ZTIN3gcn14WidgetListenerE @806 DATA
    _ZTIN3gcn17SelectionListenerE @807 DATA
    _ZTIN3gcn3GuiE @808 DATA
    _ZTIN3gcn3TabE @809 DATA
    _ZTIN3gcn4FontE @810 DATA
    _ZTIN3gcn4IconE @811 DATA
    _ZTIN3gcn5EventE @812 DATA
    _ZTIN3gcn5ImageE @813 DATA
    _ZTIN3gcn5InputE @814 DATA
    _ZTIN3gcn5LabelE @815 DATA
    _ZTIN3gcn6ButtonE @816 DATA
    _ZTIN3gcn6SliderE @817 DATA
    _ZTIN3gcn6WidgetE @818 DATA
    _ZTIN3gcn6WindowE @819 DATA
    _ZTIN3gcn7ListBoxE @820 DATA
    _ZTIN3gcn7TextBoxE @821 DATA
    _ZTIN3gcn8CheckBoxE @822 DATA
    _ZTIN3gcn8DropDownE @823 DATA
    _ZTIN3gcn8GraphicsE @824 DATA
    _ZTIN3gcn8KeyEventE @825 DATA
    _ZTIN3gcn9ContainerE @826 DATA
    _ZTIN3gcn9ImageFontE @827 DATA
    _ZTIN3gcn9ListModelE @828 DATA
    _ZTIN3gcn9TextFieldE @829 DATA
    _ZTVN3gcn10InputEventE @830 DATA
    _ZTVN3gcn10MouseEventE @831 DATA
    _ZTVN3gcn10ScrollAreaE @832 DATA
    _ZTVN3gcn10TabbedAreaE @833 DATA
    _ZTVN3gcn11ActionEventE @834 DATA
    _ZTVN3gcn11DefaultFontE @835 DATA
    _ZTVN3gcn11ImageButtonE @836 DATA
    _ZTVN3gcn11ImageLoaderE @837 DATA
    _ZTVN3gcn11KeyListenerE @838 DATA
    _ZTVN3gcn11RadioButtonE @839 DATA
    _ZTVN3gcn12FocusHandlerE @840 DATA
    _ZTVN3gcn12GenericInputE @841 DATA
    _ZTVN3gcn13DeathListenerE @842 DATA
    _ZTVN3gcn13FocusListenerE @843 DATA
    _ZTVN3gcn13MouseListenerE @844 DATA
    _ZTVN3gcn14ActionListenerE @845 DATA
    _ZTVN3gcn14BasicContainerE @846 DATA
    _ZTVN3gcn14SelectionEventE @847 DATA
    _ZTVN3gcn14WidgetListenerE @848 DATA
    _ZTVN3gcn17SelectionListenerE @849 DATA
    _ZTVN3gcn3GuiE @850 DATA
    _ZTVN3gcn3TabE @851 DATA
    _ZTVN3gcn4FontE @852 DATA
    _ZTVN3gcn4IconE @853 DATA
    _ZTVN3gcn5EventE @854 DATA
    _ZTVN3gcn5ImageE @855 DATA
    _ZTVN3gcn5InputE @856 DATA
    _ZTVN3gcn5LabelE @857 DATA
    _ZTVN3gcn6ButtonE @858 DATA
    _ZTVN3gcn6SliderE @859 DATA
    _ZTVN3gcn6WidgetE @860 DATA
    _ZTVN3gcn6WindowE @861 DATA
    _ZTVN3gcn7ListBoxE @862 DATA
    _ZTVN3gcn7TextBoxE @863 DATA
    _ZTVN3gcn8CheckBoxE @864 DATA
    _ZTVN3gcn8DropDownE @865 DATA
    _ZTVN3gcn8GraphicsE @866 DATA
    _ZTVN3gcn8KeyEventE @867 DATA
    _ZTVN3gcn9ContainerE @868 DATA
    _ZTVN3gcn9ImageFontE @869 DATA
    _ZTVN3gcn9ListModelE @870 DATA
    _ZTVN3gcn9TextFieldE @871 DATA
    _ZThn168_N3gcn10ScrollAreaD0Ev @872
    _ZThn168_N3gcn10ScrollAreaD1Ev @873
    _ZThn168_N3gcn11ImageButtonD0Ev @874
    _ZThn168_N3gcn11ImageButtonD1Ev @875
    _ZThn168_N3gcn11RadioButton12mouseClickedERNS_10MouseEventE @876
    _ZThn168_N3gcn11RadioButton12mouseDraggedERNS_10MouseEventE @877
    _ZThn168_N3gcn11RadioButtonD0Ev @878
    _ZThn168_N3gcn11RadioButtonD1Ev @879
    _ZThn168_N3gcn14BasicContainer5deathERKNS_5EventE @880
    _ZThn168_N3gcn14BasicContainerD0Ev @881
    _ZThn168_N3gcn14BasicContainerD1Ev @882
    _ZThn168_N3gcn3TabD0Ev @883
    _ZThn168_N3gcn3TabD1Ev @884
    _ZThn168_N3gcn6Button11mouseExitedERNS_10MouseEventE @885
    _ZThn168_N3gcn6Button12mouseDraggedERNS_10MouseEventE @886
    _ZThn168_N3gcn6Button12mouseEnteredERNS_10MouseEventE @887
    _ZThn168_N3gcn6Button12mousePressedERNS_10MouseEventE @888
    _ZThn168_N3gcn6Button13mouseReleasedERNS_10MouseEventE @889
    _ZThn168_N3gcn6ButtonD0Ev @890
    _ZThn168_N3gcn6ButtonD1Ev @891
    _ZThn168_N3gcn6Slider12mouseDraggedERNS_10MouseEventE @892
    _ZThn168_N3gcn6Slider12mousePressedERNS_10MouseEventE @893
    _ZThn168_N3gcn6Slider17mouseWheelMovedUpERNS_10MouseEventE @894
    _ZThn168_N3gcn6Slider19mouseWheelMovedDownERNS_10MouseEventE @895
    _ZThn168_N3gcn6SliderD0Ev @896
    _ZThn168_N3gcn6SliderD1Ev @897
    _ZThn168_N3gcn6WindowD0Ev @898
    _ZThn168_N3gcn6WindowD1Ev @899
    _ZThn168_N3gcn7ListBox12mouseDraggedERNS_10MouseEventE @900
    _ZThn168_N3gcn7ListBox12mousePressedERNS_10MouseEventE @901
    _ZThn168_N3gcn7ListBox17mouseWheelMovedUpERNS_10MouseEventE @902
    _ZThn168_N3gcn7ListBox19mouseWheelMovedDownERNS_10MouseEventE @903
    _ZThn168_N3gcn7ListBoxD0Ev @904
    _ZThn168_N3gcn7ListBoxD1Ev @905
    _ZThn168_N3gcn7TextBox12mouseDraggedERNS_10MouseEventE @906
    _ZThn168_N3gcn7TextBox12mousePressedERNS_10MouseEventE @907
    _ZThn168_N3gcn7TextBoxD0Ev @908
    _ZThn168_N3gcn7TextBoxD1Ev @909
    _ZThn168_N3gcn8CheckBox12mouseClickedERNS_10MouseEventE @910
    _ZThn168_N3gcn8CheckBox12mouseDraggedERNS_10MouseEventE @911
    _ZThn168_N3gcn8CheckBoxD0Ev @912
    _ZThn168_N3gcn8CheckBoxD1Ev @913
    _ZThn168_N3gcn9ContainerD0Ev @914
    _ZThn168_N3gcn9ContainerD1Ev @915
    _ZThn168_N3gcn9TextField12mouseDraggedERNS_10MouseEventE @916
    _ZThn168_N3gcn9TextField12mousePressedERNS_10MouseEventE @917
    _ZThn168_N3gcn9TextFieldD0Ev @918
    _ZThn168_N3gcn9TextFieldD1Ev @919
    _ZThn172_N3gcn10TabbedArea5deathERKNS_5EventE @920
    _ZThn172_N3gcn10TabbedAreaD0Ev @921
    _ZThn172_N3gcn10TabbedAreaD1Ev @922
    _ZThn172_N3gcn11ImageButtonD0Ev @923
    _ZThn172_N3gcn11ImageButtonD1Ev @924
    _ZThn172_N3gcn11RadioButton10keyPressedERNS_8KeyEventE @925
    _ZThn172_N3gcn11RadioButtonD0Ev @926
    _ZThn172_N3gcn11RadioButtonD1Ev @927
    _ZThn172_N3gcn6Button10keyPressedERNS_8KeyEventE @928
    _ZThn172_N3gcn6Button11keyReleasedERNS_8KeyEventE @929
    _ZThn172_N3gcn6ButtonD0Ev @930
    _ZThn172_N3gcn6ButtonD1Ev @931
    _ZThn172_N3gcn6Slider10keyPressedERNS_8KeyEventE @932
    _ZThn172_N3gcn6SliderD0Ev @933
    _ZThn172_N3gcn6SliderD1Ev @934
    _ZThn172_N3gcn7ListBox10keyPressedERNS_8KeyEventE @935
    _ZThn172_N3gcn7ListBoxD0Ev @936
    _ZThn172_N3gcn7ListBoxD1Ev @937
    _ZThn172_N3gcn7TextBox10keyPressedERNS_8KeyEventE @938
    _ZThn172_N3gcn7TextBoxD0Ev @939
    _ZThn172_N3gcn7TextBoxD1Ev @940
    _ZThn172_N3gcn8CheckBox10keyPressedERNS_8KeyEventE @941
    _ZThn172_N3gcn8CheckBoxD0Ev @942
    _ZThn172_N3gcn8CheckBoxD1Ev @943
    _ZThn172_N3gcn8DropDown5deathERKNS_5EventE @944
    _ZThn172_N3gcn8DropDownD0Ev @945
    _ZThn172_N3gcn8DropDownD1Ev @946
    _ZThn172_N3gcn9TextField10keyPressedERNS_8KeyEventE @947
    _ZThn172_N3gcn9TextFieldD0Ev @948
    _ZThn172_N3gcn9TextFieldD1Ev @949
    _ZThn176_N3gcn11ImageButtonD0Ev @950
    _ZThn176_N3gcn11ImageButtonD1Ev @951
    _ZThn176_N3gcn6Button9focusLostERKNS_5EventE @952
    _ZThn176_N3gcn6ButtonD0Ev @953
    _ZThn176_N3gcn6ButtonD1Ev @954
    _ZThn180_N3gcn10ScrollArea12mouseDraggedERNS_10MouseEventE @955
    _ZThn180_N3gcn10ScrollArea12mousePressedERNS_10MouseEventE @956
    _ZThn180_N3gcn10ScrollArea13mouseReleasedERNS_10MouseEventE @957
    _ZThn180_N3gcn10ScrollArea17mouseWheelMovedUpERNS_10MouseEventE @958
    _ZThn180_N3gcn10ScrollArea19mouseWheelMovedDownERNS_10MouseEventE @959
    _ZThn180_N3gcn10ScrollAreaD0Ev @960
    _ZThn180_N3gcn10ScrollAreaD1Ev @961
    _ZThn180_N3gcn3Tab11mouseExitedERNS_10MouseEventE @962
    _ZThn180_N3gcn3Tab12mouseEnteredERNS_10MouseEventE @963
    _ZThn180_N3gcn3TabD0Ev @964
    _ZThn180_N3gcn3TabD1Ev @965
    _ZThn184_N3gcn10TabbedArea10keyPressedERNS_8KeyEventE @966
    _ZThn184_N3gcn10TabbedAreaD0Ev @967
    _ZThn184_N3gcn10TabbedAreaD1Ev @968
    _ZThn184_N3gcn6Window12mouseDraggedERNS_10MouseEventE @969
    _ZThn184_N3gcn6Window12mousePressedERNS_10MouseEventE @970
    _ZThn184_N3gcn6Window13mouseReleasedERNS_10MouseEventE @971
    _ZThn184_N3gcn6WindowD0Ev @972
    _ZThn184_N3gcn6WindowD1Ev @973
    _ZThn184_N3gcn8DropDown10keyPressedERNS_8KeyEventE @974
    _ZThn184_N3gcn8DropDownD0Ev @975
    _ZThn184_N3gcn8DropDownD1Ev @976
    _ZThn188_N3gcn10TabbedArea12mousePressedERNS_10MouseEventE @977
    _ZThn188_N3gcn10TabbedAreaD0Ev @978
    _ZThn188_N3gcn10TabbedAreaD1Ev @979
    _ZThn188_N3gcn8DropDown12mouseDraggedERNS_10MouseEventE @980
    _ZThn188_N3gcn8DropDown12mousePressedERNS_10MouseEventE @981
    _ZThn188_N3gcn8DropDown13mouseReleasedERNS_10MouseEventE @982
    _ZThn188_N3gcn8DropDown17mouseWheelMovedUpERNS_10MouseEventE @983
    _ZThn188_N3gcn8DropDown19mouseWheelMovedDownERNS_10MouseEventE @984
    _ZThn188_N3gcn8DropDownD0Ev @985
    _ZThn188_N3gcn8DropDownD1Ev @986
    _ZThn192_N3gcn8DropDown9focusLostERKNS_5EventE @987
    _ZThn192_N3gcn8DropDownD0Ev @988
    _ZThn192_N3gcn8DropDownD1Ev @989
    _ZThn196_N3gcn8DropDown12valueChangedERKNS_14SelectionEventE @990
    _ZThn196_N3gcn8DropDownD0Ev @991
    _ZThn196_N3gcn8DropDownD1Ev @992
    _ZThn4_N3gcn10TabbedArea10drawBorderEPNS_8GraphicsE @993
    _ZThn4_N3gcn10TabbedArea4drawEPNS_8GraphicsE @994
    _ZThn4_N3gcn10TabbedArea5deathERKNS_5EventE @995
    _ZThn4_N3gcn10TabbedArea5logicEv @996
    _ZThn4_N3gcn10TabbedAreaD0Ev @997
    _ZThn4_N3gcn10TabbedAreaD1Ev @998
    _ZThn4_N3gcn8DropDown10drawBorderEPNS_8GraphicsE @999
    _ZThn4_N3gcn8DropDown15getChildrenAreaEv @1000
    _ZThn4_N3gcn8DropDown4drawEPNS_8GraphicsE @1001
    _ZThn4_N3gcn8DropDown5deathERKNS_5EventE @1002
    _ZThn4_N3gcn8DropDownD0Ev @1003
    _ZThn4_N3gcn8DropDownD1Ev @1004
